target datalayout = "e-m:e-p270:32:32-p271:32:32-p272:64:64-i64:64-i128:128-f80:128-n8:16:32:64-S128"
target triple = "x86_64-pc-linux-gnu"

%struct.strvec = type { ptr, i64, i64 }

@.str = private unnamed_addr constant [9 x i8] c"strvec.c\00", align 1
@.str.2 = private unnamed_addr constant [32 x i8] c"index outside of array boundary\00", align 1

; Function Attrs: nounwind uwtable
define dso_local void @strvec_remove(ptr noundef %0, i64 noundef %1) #0 {
  %3 = alloca ptr, align 8
  %4 = alloca i64, align 8
  store ptr %0, ptr %3, align 8, !tbaa !4
  store i64 %1, ptr %4, align 8, !tbaa !17
  %5 = load i64, ptr %4, align 8, !tbaa !17
  %6 = load ptr, ptr %3, align 8, !tbaa !4
  %7 = getelementptr inbounds nuw %struct.strvec, ptr %6, i32 0, i32 1
  %8 = load i64, ptr %7, align 8, !tbaa !15
  %9 = icmp uge i64 %5, %8
  br i1 %9, label %10, label %11

10:                                               ; preds = %2
  call void (ptr, i32, ptr, ...) @BUG_fl(ptr noundef @.str, i32 noundef 95, ptr noundef @.str.2) #9
  unreachable

11:                                               ; preds = %2
  %12 = load ptr, ptr %3, align 8, !tbaa !4
  %13 = getelementptr inbounds nuw %struct.strvec, ptr %12, i32 0, i32 0
  %14 = load ptr, ptr %13, align 8, !tbaa !11
  %15 = load i64, ptr %4, align 8, !tbaa !17
  %16 = getelementptr inbounds nuw ptr, ptr %14, i64 %15
  %17 = load ptr, ptr %16, align 8, !tbaa !9
  call void @free(ptr noundef %17) #8
  %18 = load ptr, ptr %3, align 8, !tbaa !4
  %19 = getelementptr inbounds nuw %struct.strvec, ptr %18, i32 0, i32 0
  %20 = load ptr, ptr %19, align 8, !tbaa !11
  %21 = load i64, ptr %4, align 8, !tbaa !17
  %22 = getelementptr inbounds nuw ptr, ptr %20, i64 %21
  %23 = load ptr, ptr %3, align 8, !tbaa !4
  %24 = getelementptr inbounds nuw %struct.strvec, ptr %23, i32 0, i32 0
  %25 = load ptr, ptr %24, align 8, !tbaa !11
  %26 = load i64, ptr %4, align 8, !tbaa !17
  %27 = getelementptr inbounds nuw ptr, ptr %25, i64 %26
  %28 = getelementptr inbounds ptr, ptr %27, i64 1
  %29 = load ptr, ptr %3, align 8, !tbaa !4
  %30 = getelementptr inbounds nuw %struct.strvec, ptr %29, i32 0, i32 1
  %31 = load i64, ptr %30, align 8, !tbaa !15
  %32 = load i64, ptr %4, align 8, !tbaa !17
  %33 = sub i64 %31, %32
  %34 = mul i64 %33, 8
  call void @llvm.memmove.p0.p0.i64(ptr align 8 %22, ptr align 8 %28, i64 %34, i1 false)
  %35 = load ptr, ptr %3, align 8, !tbaa !4
  %36 = getelementptr inbounds nuw %struct.strvec, ptr %35, i32 0, i32 1
  %37 = load i64, ptr %36, align 8, !tbaa !15
  %38 = add i64 %37, -1
  store i64 %38, ptr %36, align 8, !tbaa !15
  ret void
}