; Function Attrs: nounwind uwtable
define dso_local void @strvec_remove(ptr noundef captures(none) %0, i64 noundef %1) local_unnamed_addr #3 {
  %3 = getelementptr inbounds nuw i8, ptr %0, i64 8
  %4 = load i64, ptr %3, align 8, !tbaa !11
  %.not = icmp ult i64 %1, %4
  br i1 %.not, label %6, label %5

5:                                                ; preds = %2
  tail call void (ptr, i32, ptr, ...) @BUG_fl(ptr noundef nonnull @.str, i32 noundef 95, ptr noundef nonnull @.str.2) #10
  unreachable

6:                                                ; preds = %2
  %7 = load ptr, ptr %0, align 8, !tbaa !4
  %8 = getelementptr inbounds nuw ptr, ptr %7, i64 %1
  %9 = load ptr, ptr %8, align 8, !tbaa !13
  tail call void @free(ptr noundef %9) #11
  %10 = load ptr, ptr %0, align 8, !tbaa !4
  %11 = getelementptr inbounds nuw ptr, ptr %10, i64 %1
  %12 = getelementptr inbounds nuw i8, ptr %11, i64 8
  %13 = load i64, ptr %3, align 8, !tbaa !11
  %14 = sub i64 %13, %1
  %15 = shl i64 %14, 3
  tail call void @llvm.memmove.p0.p0.i64(ptr align 8 %11, ptr nonnull align 8 %12, i64 %15, i1 false)
  %16 = load i64, ptr %3, align 8, !tbaa !11
  %17 = add i64 %16, -1
  store i64 %17, ptr %3, align 8, !tbaa !11
  ret void
}